; Function Attrs: mustprogress uwtable
define dso_local noundef range(i32 -2147483647, -2147483648) i32 @_Z8ReadFileRKNSt7__cxx1112basic_stringIcSt11char_traitsIcESaIcEEEPS4_S7_(ptr noundef nonnull readonly align 8 captures(none) dereferenceable(32) %0, ptr noundef %1, ptr noundef %2) local_unnamed_addr #7 personality ptr @__gxx_personality_v0 {
  %4 = alloca %struct.stat64, align 8
  %5 = alloca [65536 x i8], align 16
  %6 = load ptr, ptr %0, align 8, !tbaa !15
  %7 = tail call noalias ptr @fopen(ptr noundef %6, ptr noundef nonnull @.str.5)
  %.not = icmp eq ptr %7, null
  br i1 %.not, label %8, label %18

8:                                                ; preds = %3
  %9 = tail call ptr @__errno_location() #38
  %10 = load i32, ptr %9, align 4, !tbaa !25
  %11 = tail call ptr @strerror(i32 noundef %10) #32
  %12 = getelementptr inbounds nuw i8, ptr %2, i64 8
  %13 = load i64, ptr %12, align 8, !tbaa !9
  %14 = tail call noundef i64 @strlen(ptr noundef nonnull dereferenceable(1) %11) #32
  %15 = tail call noundef nonnull align 8 dereferenceable(32) ptr @_ZNSt7__cxx1112basic_stringIcSt11char_traitsIcESaIcEE10_M_replaceEmmPKcm(ptr noundef nonnull align 8 dereferenceable(32) %2, i64 noundef 0, i64 noundef %13, ptr noundef nonnull %11, i64 noundef %14)
  %16 = load i32, ptr %9, align 4, !tbaa !25
  %17 = sub nsw i32 0, %16
  br label %66

18:                                               ; preds = %3
  call void @llvm.lifetime.start.p0(i64 144, ptr nonnull %4) #32
  %19 = tail call i32 @fileno(ptr noundef nonnull %7) #32
  %20 = call i32 @fstat64(i32 noundef %19, ptr noundef nonnull %4) #32
  %21 = icmp slt i32 %20, 0
  br i1 %21, label %22, label %33

22:                                               ; preds = %18
  %23 = tail call ptr @__errno_location() #38
  %24 = load i32, ptr %23, align 4, !tbaa !25
  %25 = tail call ptr @strerror(i32 noundef %24) #32
  %26 = getelementptr inbounds nuw i8, ptr %2, i64 8
  %27 = load i64, ptr %26, align 8, !tbaa !9
  %28 = tail call noundef i64 @strlen(ptr noundef nonnull dereferenceable(1) %25) #32
  %29 = tail call noundef nonnull align 8 dereferenceable(32) ptr @_ZNSt7__cxx1112basic_stringIcSt11char_traitsIcESaIcEE10_M_replaceEmmPKcm(ptr noundef nonnull align 8 dereferenceable(32) %2, i64 noundef 0, i64 noundef %27, ptr noundef nonnull %25, i64 noundef %28)
  %30 = tail call i32 @fclose(ptr noundef nonnull %7)
  %31 = load i32, ptr %23, align 4, !tbaa !25
  %32 = sub nsw i32 0, %31
  br label %65

33:                                               ; preds = %18
  %34 = getelementptr inbounds nuw i8, ptr %4, i64 48
  %35 = load i64, ptr %34, align 8, !tbaa !27
  %36 = add nsw i64 %35, 1
  tail call void @_ZNSt7__cxx1112basic_stringIcSt11char_traitsIcESaIcEE7reserveEm(ptr noundef nonnull align 8 dereferenceable(32) %1, i64 noundef %36)
  call void @llvm.lifetime.start.p0(i64 65536, ptr nonnull %5) #32
  %37 = tail call i32 @feof(ptr noundef nonnull %7) #32
  %.not1821 = icmp eq i32 %37, 0
  br i1 %.not1821, label %.lr.ph, label %.critedge

.lr.ph:                                           ; preds = %33
  %38 = getelementptr inbounds nuw i8, ptr %1, i64 8
  br label %39

39:                                               ; preds = %.lr.ph, %_ZNSt7__cxx1112basic_stringIcSt11char_traitsIcESaIcEE6appendEPKcm.exit
  %40 = call i64 @fread(ptr noundef nonnull %5, i64 noundef 1, i64 noundef 65536, ptr noundef nonnull %7)
  %.not19 = icmp eq i64 %40, 0
  br i1 %.not19, label %.critedge, label %41

41:                                               ; preds = %39
  %42 = load i64, ptr %38, align 8, !tbaa !9
  %43 = sub i64 4611686018427387903, %42
  %44 = icmp ult i64 %43, %40
  br i1 %44, label %45, label %_ZNSt7__cxx1112basic_stringIcSt11char_traitsIcESaIcEE6appendEPKcm.exit

45:                                               ; preds = %41
  call void @_ZSt20__throw_length_errorPKc(ptr noundef nonnull @.str.26) #37
  unreachable

_ZNSt7__cxx1112basic_stringIcSt11char_traitsIcESaIcEE6appendEPKcm.exit: ; preds = %41
  %46 = call noundef nonnull align 8 dereferenceable(32) ptr @_ZNSt7__cxx1112basic_stringIcSt11char_traitsIcESaIcEE9_M_appendEPKcm(ptr noundef nonnull align 8 dereferenceable(32) %1, ptr noundef nonnull %5, i64 noundef %40)
  %47 = call i32 @feof(ptr noundef nonnull %7) #32
  %.not18 = icmp eq i32 %47, 0
  br i1 %.not18, label %39, label %.critedge, !llvm.loop !30

.critedge:                                        ; preds = %39, %_ZNSt7__cxx1112basic_stringIcSt11char_traitsIcESaIcEE6appendEPKcm.exit, %33
  %48 = call i32 @ferror(ptr noundef nonnull %7) #32
  %.not20 = icmp eq i32 %48, 0
  br i1 %.not20, label %62, label %49

49:                                               ; preds = %.critedge
  %50 = tail call ptr @__errno_location() #38
  %51 = load i32, ptr %50, align 4, !tbaa !25
  %52 = call ptr @strerror(i32 noundef %51) #32
  %53 = getelementptr inbounds nuw i8, ptr %2, i64 8
  %54 = load i64, ptr %53, align 8, !tbaa !9
  %55 = call noundef i64 @strlen(ptr noundef nonnull dereferenceable(1) %52) #32
  %56 = call noundef nonnull align 8 dereferenceable(32) ptr @_ZNSt7__cxx1112basic_stringIcSt11char_traitsIcESaIcEE10_M_replaceEmmPKcm(ptr noundef nonnull align 8 dereferenceable(32) %2, i64 noundef 0, i64 noundef %54, ptr noundef nonnull %52, i64 noundef %55)
  %57 = getelementptr inbounds nuw i8, ptr %1, i64 8
  store i64 0, ptr %57, align 8, !tbaa !9
  %58 = load ptr, ptr %1, align 8, !tbaa !15
  store i8 0, ptr %58, align 1, !tbaa !16
  %59 = call i32 @fclose(ptr noundef nonnull %7)
  %60 = load i32, ptr %50, align 4, !tbaa !25
  %61 = sub nsw i32 0, %60
  br label %64

62:                                               ; preds = %.critedge
  %63 = call i32 @fclose(ptr noundef nonnull %7)
  br label %64

64:                                               ; preds = %62, %49
  %.2 = phi i32 [ %61, %49 ], [ 0, %62 ]
  call void @llvm.lifetime.end.p0(i64 65536, ptr nonnull %5) #32
  br label %65

65:                                               ; preds = %64, %22
  %.1 = phi i32 [ %32, %22 ], [ %.2, %64 ]
  call void @llvm.lifetime.end.p0(i64 144, ptr nonnull %4) #32
  br label %66

66:                                               ; preds = %65, %8
  %.0 = phi i32 [ %.1, %65 ], [ %17, %8 ]
  ret i32 %.0
}